target datalayout = "e-m:e-p270:32:32-p271:32:32-p272:64:64-i64:64-i128:128-f80:128-n8:16:32:64-S128"
target triple = "x86_64-pc-linux-gnu"

%"class.cv::TermCriteria" = type { i32, i32, double }

; Function Attrs: mustprogress uwtable
define void @_ZN2cv20undistortImagePointsERKNS_11_InputArrayERKNS_12_OutputArrayES2_S2_NS_12TermCriteriaE(ptr noundef nonnull align 8 dereferenceable(24) %0, ptr noundef nonnull align 8 dereferenceable(24) %1, ptr noundef nonnull align 8 dereferenceable(24) %2, ptr noundef nonnull align 8 dereferenceable(24) %3, i64 %4, double %5) #4 {
  %7 = alloca %"class.cv::TermCriteria", align 8
  %8 = alloca ptr, align 8
  %9 = alloca ptr, align 8
  %10 = alloca ptr, align 8
  %11 = alloca ptr, align 8
  %12 = alloca %"class.cv::TermCriteria", align 8
  %13 = getelementptr inbounds { i64, double }, ptr %7, i32 0, i32 0
  store i64 %4, ptr %13, align 8
  %14 = getelementptr inbounds { i64, double }, ptr %7, i32 0, i32 1
  store double %5, ptr %14, align 8
  store ptr %0, ptr %8, align 8
  store ptr %1, ptr %9, align 8
  store ptr %2, ptr %10, align 8
  store ptr %3, ptr %11, align 8
  %15 = load ptr, ptr %8, align 8
  %16 = load ptr, ptr %9, align 8
  %17 = load ptr, ptr %10, align 8
  %18 = load ptr, ptr %11, align 8
  %19 = call noundef nonnull align 8 dereferenceable(24) ptr @_ZN2cv7noArrayEv()
  %20 = load ptr, ptr %10, align 8
  call void @llvm.memcpy.p0.p0.i64(ptr align 8 %12, ptr align 8 %7, i64 16, i1 false)
  call void @_ZN2cv15undistortPointsERKNS_11_InputArrayERKNS_12_OutputArrayES2_S2_S2_S2_NS_12TermCriteriaE(ptr noundef nonnull align 8 dereferenceable(24) %15, ptr noundef nonnull align 8 dereferenceable(24) %16, ptr noundef nonnull align 8 dereferenceable(24) %17, ptr noundef nonnull align 8 dereferenceable(24) %18, ptr noundef nonnull align 8 dereferenceable(24) %19, ptr noundef nonnull align 8 dereferenceable(24) %20, ptr noundef byval(%"class.cv::TermCriteria") align 8 %12)
  ret void
}