; Function Attrs: mustprogress uwtable
define void @_ZN2cv20undistortImagePointsERKNS_11_InputArrayERKNS_12_OutputArrayES2_S2_NS_12TermCriteriaE(ptr noundef nonnull align 8 dereferenceable(24) %0, ptr noundef nonnull align 8 dereferenceable(24) %1, ptr noundef nonnull align 8 dereferenceable(24) %2, ptr noundef nonnull align 8 dereferenceable(24) %3, i64 %4, double %5) local_unnamed_addr #3 {
  %7 = alloca %"class.cv::TermCriteria", align 8
  %8 = tail call noundef nonnull align 8 dereferenceable(24) ptr @_ZN2cv7noArrayEv()
  store i64 %4, ptr %7, align 8
  %.sroa.2.0..sroa_idx = getelementptr inbounds i8, ptr %7, i64 8
  store double %5, ptr %.sroa.2.0..sroa_idx, align 8
  tail call void @_ZN2cv15undistortPointsERKNS_11_InputArrayERKNS_12_OutputArrayES2_S2_S2_S2_NS_12TermCriteriaE(ptr noundef nonnull align 8 dereferenceable(24) %0, ptr noundef nonnull align 8 dereferenceable(24) %1, ptr noundef nonnull align 8 dereferenceable(24) %2, ptr noundef nonnull align 8 dereferenceable(24) %3, ptr noundef nonnull align 8 dereferenceable(24) %8, ptr noundef nonnull align 8 dereferenceable(24) %2, ptr noundef nonnull byval(%"class.cv::TermCriteria") align 8 %7)
  ret void
}